target datalayout = "e-m:e-p270:32:32-p271:32:32-p272:64:64-i64:64-i128:128-f80:128-n8:16:32:64-S128"
target triple = "x86_64-pc-linux-gnu"

%"class.cvc5::internal::NodeTemplate" = type { ptr }
%"class.cvc5::internal::NodeTemplate.0" = type { ptr }
%"class.cvc5::internal::theory::Rewriter" = type { ptr, ptr, [14 x ptr], %"class.std::vector", %"class.std::unique_ptr", %"class.std::unordered_set" }
%"class.std::vector" = type { %"struct.std::_Vector_base" }
%"struct.std::_Vector_base" = type { %"struct.std::_Vector_base<std::unique_ptr<cvc5::internal::theory::NoOpTheoryRewriter>, std::allocator<std::unique_ptr<cvc5::internal::theory::NoOpTheoryRewriter>>>::_Vector_impl" }
%"struct.std::_Vector_base<std::unique_ptr<cvc5::internal::theory::NoOpTheoryRewriter>, std::allocator<std::unique_ptr<cvc5::internal::theory::NoOpTheoryRewriter>>>::_Vector_impl" = type { %"struct.std::_Vector_base<std::unique_ptr<cvc5::internal::theory::NoOpTheoryRewriter>, std::allocator<std::unique_ptr<cvc5::internal::theory::NoOpTheoryRewriter>>>::_Vector_impl_data" }
%"struct.std::_Vector_base<std::unique_ptr<cvc5::internal::theory::NoOpTheoryRewriter>, std::allocator<std::unique_ptr<cvc5::internal::theory::NoOpTheoryRewriter>>>::_Vector_impl_data" = type { ptr, ptr, ptr }
%"class.std::unique_ptr" = type { %"struct.std::__uniq_ptr_data" }
%"struct.std::__uniq_ptr_data" = type { %"class.std::__uniq_ptr_impl" }
%"class.std::__uniq_ptr_impl" = type { %"class.std::tuple" }
%"class.std::tuple" = type { %"struct.std::_Tuple_impl" }
%"struct.std::_Tuple_impl" = type { %"struct.std::_Head_base.2" }
%"struct.std::_Head_base.2" = type { ptr }
%"class.std::unordered_set" = type { %"class.std::_Hashtable" }
%"class.std::_Hashtable" = type { ptr, i64, %"struct.std::__detail::_Hash_node_base", i64, %"struct.std::__detail::_Prime_rehash_policy", ptr }
%"struct.std::__detail::_Hash_node_base" = type { ptr }
%"struct.std::__detail::_Prime_rehash_policy" = type { float, i64 }

; Function Attrs: mustprogress nounwind uwtable
define hidden noundef ptr @_ZN4cvc58internal6theory8Rewriter17getTheoryRewriterENS1_8TheoryIdE(ptr noundef nonnull align 8 dereferenceable(216) %0, i32 noundef %1) #5 align 2 {
  %3 = alloca ptr, align 8
  %4 = alloca i32, align 4
  store ptr %0, ptr %3, align 8, !tbaa !3
  store i32 %1, ptr %4, align 4, !tbaa !8
  %5 = load ptr, ptr %3, align 8
  %6 = getelementptr inbounds nuw %"class.cvc5::internal::theory::Rewriter", ptr %5, i32 0, i32 2
  %7 = load i32, ptr %4, align 4, !tbaa !8
  %8 = zext i32 %7 to i64
  %9 = getelementptr inbounds nuw [14 x ptr], ptr %6, i64 0, i64 %8
  %10 = load ptr, ptr %9, align 8, !tbaa !86
  ret ptr %10
}

; Function Attrs: mustprogress nounwind uwtable
define linkonce_odr hidden void @_ZN4cvc58internal12NodeTemplateILb0EED2Ev(ptr noundef nonnull align 8 dereferenceable(8) %0) unnamed_addr #5 comdat align 2 {
  %2 = alloca ptr, align 8
  store ptr %0, ptr %2, align 8, !tbaa !10
  ret void
}

; Function Attrs: mustprogress nounwind uwtable
define linkonce_odr hidden void @_ZN4cvc58internal12NodeTemplateILb0EEC2ERKNS1_ILb1EEE(ptr noundef nonnull align 8 dereferenceable(8) %0, ptr noundef nonnull align 8 dereferenceable(8) %1) unnamed_addr #5 comdat align 2 {
  %3 = alloca ptr, align 8
  %4 = alloca ptr, align 8
  store ptr %0, ptr %3, align 8, !tbaa !10
  store ptr %1, ptr %4, align 8, !tbaa !59
  %5 = load ptr, ptr %3, align 8
  %6 = load ptr, ptr %4, align 8, !tbaa !59
  %7 = getelementptr inbounds nuw %"class.cvc5::internal::NodeTemplate", ptr %6, i32 0, i32 0
  %8 = load ptr, ptr %7, align 8, !tbaa !61
  %9 = getelementptr inbounds nuw %"class.cvc5::internal::NodeTemplate.0", ptr %5, i32 0, i32 0
  store ptr %8, ptr %9, align 8, !tbaa !12
  ret void
}

; Function Attrs: mustprogress uwtable
define hidden noundef i32 @_ZN4cvc58internal6theory8Rewriter8findRuleERKNS0_12NodeTemplateILb1EEES6_NS1_16TheoryRewriteCtxE(ptr noundef nonnull align 8 dereferenceable(216) %0, ptr noundef nonnull align 8 dereferenceable(8) %1, ptr noundef nonnull align 8 dereferenceable(8) %2, i32 noundef %3) #4 align 2 personality ptr @__gxx_personality_v0 {
  %5 = alloca i32, align 4
  %6 = alloca ptr, align 8
  %7 = alloca ptr, align 8
  %8 = alloca ptr, align 8
  %9 = alloca i32, align 4
  %10 = alloca i32, align 4
  %11 = alloca %"class.cvc5::internal::NodeTemplate.0", align 8
  %12 = alloca ptr, align 8
  %13 = alloca i32, align 4
  %14 = alloca ptr, align 8
  %15 = alloca i32, align 4
  store ptr %0, ptr %6, align 8, !tbaa !3
  store ptr %1, ptr %7, align 8, !tbaa !59
  store ptr %2, ptr %8, align 8, !tbaa !59
  store i32 %3, ptr %9, align 4, !tbaa !123
  %16 = load ptr, ptr %6, align 8
  call void @llvm.lifetime.start.p0(i64 4, ptr %10) #3
  %17 = load ptr, ptr %7, align 8, !tbaa !59
  call void @_ZN4cvc58internal12NodeTemplateILb0EEC2ERKNS1_ILb1EEE(ptr noundef nonnull align 8 dereferenceable(8) %11, ptr noundef nonnull align 8 dereferenceable(8) %17)
  %18 = invoke noundef i32 @_ZN4cvc58internal6theoryL8theoryOfENS0_12NodeTemplateILb0EEE(ptr noundef %11)
          to label %19 unwind label %30

19:                                               ; preds = %4
  call void @_ZN4cvc58internal12NodeTemplateILb0EED2Ev(ptr noundef nonnull align 8 dereferenceable(8) %11) #3
  store i32 %18, ptr %10, align 4, !tbaa !8
  call void @llvm.lifetime.start.p0(i64 8, ptr %14) #3
  %20 = load i32, ptr %10, align 4, !tbaa !8
  %21 = call noundef ptr @_ZN4cvc58internal6theory8Rewriter17getTheoryRewriterENS1_8TheoryIdE(ptr noundef nonnull align 8 dereferenceable(216) %16, i32 noundef %20)
  store ptr %21, ptr %14, align 8, !tbaa !86
  %22 = load ptr, ptr %14, align 8, !tbaa !86
  %23 = icmp ne ptr %22, null
  br i1 %23, label %24, label %34

24:                                               ; preds = %19
  %25 = load ptr, ptr %14, align 8, !tbaa !86
  %26 = load ptr, ptr %7, align 8, !tbaa !59
  %27 = load ptr, ptr %8, align 8, !tbaa !59
  %28 = load i32, ptr %9, align 4, !tbaa !123
  %29 = call noundef i32 @_ZN4cvc58internal6theory14TheoryRewriter8findRuleERKNS0_12NodeTemplateILb1EEES6_NS1_16TheoryRewriteCtxE(ptr noundef nonnull align 8 dereferenceable(64) %25, ptr noundef nonnull align 8 dereferenceable(8) %26, ptr noundef nonnull align 8 dereferenceable(8) %27, i32 noundef %28)
  store i32 %29, ptr %5, align 4
  store i32 1, ptr %15, align 4
  br label %35

30:                                               ; preds = %4
  %31 = landingpad { ptr, i32 }
          cleanup
  %32 = extractvalue { ptr, i32 } %31, 0
  store ptr %32, ptr %12, align 8
  %33 = extractvalue { ptr, i32 } %31, 1
  store i32 %33, ptr %13, align 4
  call void @_ZN4cvc58internal12NodeTemplateILb0EED2Ev(ptr noundef nonnull align 8 dereferenceable(8) %11) #3
  call void @llvm.lifetime.end.p0(i64 4, ptr %10) #3
  br label %37

34:                                               ; preds = %19
  store i32 0, ptr %5, align 4
  store i32 1, ptr %15, align 4
  br label %35

35:                                               ; preds = %34, %24
  call void @llvm.lifetime.end.p0(i64 8, ptr %14) #3
  call void @llvm.lifetime.end.p0(i64 4, ptr %10) #3
  %36 = load i32, ptr %5, align 4
  ret i32 %36

37:                                               ; preds = %30
  %38 = load ptr, ptr %12, align 8
  %39 = load i32, ptr %13, align 4
  %40 = insertvalue { ptr, i32 } poison, ptr %38, 0
  %41 = insertvalue { ptr, i32 } %40, i32 %39, 1
  resume { ptr, i32 } %41
}