; Function Attrs: mustprogress uwtable
define hidden noundef i32 @_ZN4cvc58internal6theory8Rewriter8findRuleERKNS0_12NodeTemplateILb1EEES6_NS1_16TheoryRewriteCtxE(ptr noundef nonnull readonly align 8 captures(none) dereferenceable(216) %0, ptr noundef nonnull align 8 dereferenceable(8) %1, ptr noundef nonnull align 8 dereferenceable(8) %2, i32 noundef %3) local_unnamed_addr #3 align 2 personality ptr @__gxx_personality_v0 {
  %5 = load ptr, ptr %1, align 8, !tbaa !11
  %6 = tail call fastcc noundef i32 @_ZN4cvc58internal6theoryL8theoryOfENS0_12NodeTemplateILb0EEE(ptr %5)
  %7 = getelementptr inbounds nuw i8, ptr %0, i64 16
  %8 = zext i32 %6 to i64
  %9 = getelementptr inbounds nuw [14 x ptr], ptr %7, i64 0, i64 %8
  %10 = load ptr, ptr %9, align 8, !tbaa !393
  %.not = icmp eq ptr %10, null
  br i1 %.not, label %13, label %11

11:                                               ; preds = %4
  %12 = tail call noundef i32 @_ZN4cvc58internal6theory14TheoryRewriter8findRuleERKNS0_12NodeTemplateILb1EEES6_NS1_16TheoryRewriteCtxE(ptr noundef nonnull align 8 dereferenceable(64) %10, ptr noundef nonnull align 8 dereferenceable(8) %1, ptr noundef nonnull align 8 dereferenceable(8) %2, i32 noundef %3)
  br label %13

13:                                               ; preds = %4, %11
  %.0 = phi i32 [ %12, %11 ], [ 0, %4 ]
  ret i32 %.0
}